(lp0
V\u91cd\u8bbe
p1
aV\u624b\u673a\u53f7
p2
aV\u5bc6\u7801
p3
aV\u4e00\u6b65
p4
aV\u8f93\u5165\u60a8
p5
aV\u96c5\u9ed1
p6
aV\u5fae\u8f6f
p7
aV\u7279\u7ea6
p8
aV\u4fe1\u7528\u5361
p9
aV\u7248\u6743\u6240\u6709
p10
aV\u9996\u9875
p11
aV\u4fdd\u62a4\u6a21\u5f0f
p12
aV\u817e\u8baf
p13
aV\u53cd\u9988
p14
aV\u7b80\u4f53\u4e2d\u6587
p15
a.